target datalayout = "e-m:e-p270:32:32-p271:32:32-p272:64:64-i64:64-i128:128-f80:128-n8:16:32:64-S128"
target triple = "x86_64-pc-linux-gnu"

%"class.gmx::AnalysisDataProxy" = type <{ %"class.gmx::AbstractAnalysisData", %"class.gmx::IAnalysisDataModule", ptr, i32, i32, i8, [7 x i8] }>
%"class.gmx::AbstractAnalysisData" = type { ptr, %"class.std::unique_ptr" }
%"class.std::unique_ptr" = type { %"struct.std::__uniq_ptr_data" }
%"struct.std::__uniq_ptr_data" = type { %"class.std::__uniq_ptr_impl" }
%"class.std::__uniq_ptr_impl" = type { %"class.std::tuple" }
%"class.std::tuple" = type { %"struct.std::_Tuple_impl" }
%"struct.std::_Tuple_impl" = type { %"struct.std::_Head_base.4" }
%"struct.std::_Head_base.4" = type { ptr }
%"class.gmx::IAnalysisDataModule" = type { ptr }
%"class.gmx::AnalysisDataFrameHeader" = type { i32, float, float }

; Function Attrs: mustprogress uwtable
define void @_ZN3gmx17AnalysisDataProxy19frameFinishedSerialEi(ptr noundef nonnull align 8 dereferenceable(41) %0, i32 noundef %1) unnamed_addr #1 align 2 {
  %3 = alloca ptr, align 8
  %4 = alloca i32, align 4
  %5 = alloca %"class.gmx::AnalysisDataFrameHeader", align 4
  store ptr %0, ptr %3, align 8
  store i32 %1, ptr %4, align 4
  %6 = load ptr, ptr %3, align 8
  %7 = getelementptr inbounds %"class.gmx::AnalysisDataProxy", ptr %6, i32 0, i32 5
  %8 = load i8, ptr %7, align 8
  %9 = trunc i8 %8 to i1
  br i1 %9, label %10, label %13

10:                                               ; preds = %2
  %11 = load i32, ptr %4, align 4
  call void @_ZN3gmx23AnalysisDataFrameHeaderC1Eiff(ptr noundef nonnull align 4 dereferenceable(12) %5, i32 noundef %11, float noundef 0.000000e+00, float noundef 0.000000e+00)
  %12 = call noundef nonnull align 8 dereferenceable(8) ptr @_ZN3gmx20AbstractAnalysisData13moduleManagerEv(ptr noundef nonnull align 8 dereferenceable(16) %6)
  call void @_ZNK3gmx25AnalysisDataModuleManager17notifyFrameFinishERKNS_23AnalysisDataFrameHeaderE(ptr noundef nonnull align 8 dereferenceable(8) %12, ptr noundef nonnull align 4 dereferenceable(12) %5)
  br label %13

13:                                               ; preds = %10, %2
  ret void
}