; Function Attrs: mustprogress uwtable
define void @_ZN3gmx17AnalysisDataProxy19frameFinishedSerialEi(ptr noundef nonnull align 8 dereferenceable(41) %0, i32 noundef %1) unnamed_addr #1 align 2 {
  %3 = alloca %"class.gmx::AnalysisDataFrameHeader", align 4
  %4 = getelementptr inbounds i8, ptr %0, i64 40
  %5 = load i8, ptr %4, align 8
  %6 = trunc i8 %5 to i1
  br i1 %6, label %7, label %9

7:                                                ; preds = %2
  call void @_ZN3gmx23AnalysisDataFrameHeaderC1Eiff(ptr noundef nonnull align 4 dereferenceable(12) %3, i32 noundef %1, float noundef 0.000000e+00, float noundef 0.000000e+00)
  %8 = call noundef nonnull align 8 dereferenceable(8) ptr @_ZN3gmx20AbstractAnalysisData13moduleManagerEv(ptr noundef nonnull align 8 dereferenceable(16) %0)
  call void @_ZNK3gmx25AnalysisDataModuleManager17notifyFrameFinishERKNS_23AnalysisDataFrameHeaderE(ptr noundef nonnull align 8 dereferenceable(8) %8, ptr noundef nonnull align 4 dereferenceable(12) %3)
  br label %9

9:                                                ; preds = %7, %2
  ret void
}